; Function Attrs: mustprogress uwtable
define internal void @"_ZNSt17_Function_handlerIFvRKN3gmx20PropagatorConnectionEEZNS0_24MttkPropagatorConnection5buildEPNS0_38ModularSimulatorAlgorithmBuilderHelperERKNS0_13PropagatorTagESA_iSA_SA_iSA_SA_iE3$_2E9_M_invokeERKSt9_Any_dataS3_"(ptr noundef nonnull readonly align 8 captures(none) dereferenceable(16) %0, ptr noundef nonnull align 8 dereferenceable(320) %1) #1 align 2 {
  %.val = load ptr, ptr %0, align 8, !tbaa !243
  %3 = load ptr, ptr %.val, align 8, !tbaa !249
  %4 = getelementptr inbounds nuw i8, ptr %.val, i64 8
  %5 = getelementptr inbounds nuw i8, ptr %.val, i64 40
  %6 = load i32, ptr %5, align 8, !tbaa !251
  tail call void @_ZN3gmx24MttkPropagatorConnection43connectWithPropagatorVelocityPreStepScalingERKNS_20PropagatorConnectionERKNS_13PropagatorTagEi(ptr noundef nonnull align 8 dereferenceable(120) %3, ptr noundef nonnull align 8 dereferenceable(320) %1, ptr noundef nonnull readonly align 8 dereferenceable(32) %4, i32 noundef %6)
  ret void
}